(dp0
S'\x93'
p1
I96
sS' '
p2
I2
sS'$'
p3
I6
sS'('
p4
I10
sS'\xab'
p5
I103
sS','
p6
I14
sS'0'
p7
I18
sS'\xb3'
p8
I109
sS'4'
p9
I22
sS'8'
p10
I26
sS'<'
p11
I30
sS'\xc3'
p12
I112
sS'D'
p13
I37
sS'H'
p14
I41
sS'\xcb'
p15
I113
sS'L'
p16
I45
sS'P'
p17
I49
sS'T'
p18
I53
sS'X'
p19
I57
sS'`'
p20
I63
sS'd'
p21
I67
sS'h'
p22
I71
sS'l'
p23
I75
sS'\xef'
p24
I116
sS'p'
p25
I79
sS't'
p26
I83
sS'x'
p27
I87
sS'\x80'
p28
I91
sS'\x88'
p29
I95
sS'\x94'
p30
I97
sS'\x98'
p31
I99
sS'\x9c'
p32
I101
sS'#'
p33
I5
sS"'"
p34
I9
sS'+'
p35
I13
sS'\xac'
p36
I104
sS'/'
p37
I17
sS'\xb0'
p38
I107
sS'3'
p39
I21
sS'7'
p40
I25
sS'\xb8'
p41
I110
sS';'
p42
I29
sS'?'
p43
I33
sS'C'
p44
I36
sS'G'
p45
I40
sS'K'
p46
I44
sS'\xcc'
p47
I114
sS'O'
p48
I48
sS'S'
p49
I52
sS'W'
p50
I56
sS'['
p51
I60
sS'_'
p52
I62
sS'c'
p53
I66
sS'g'
p54
I70
sS'k'
p55
I74
sS'o'
p56
I78
sS's'
p57
I82
sS'w'
p58
I86
sS'\x81'
p59
I92
sS'\n'
p60
I1
sS'\x99'
p61
I100
sS'\x9d'
p62
I102
sS'"'
p63
I4
sS'&'
p64
I8
sS'*'
p65
I12
sS'\xad'
p66
I105
sS'.'
p67
I16
sS'\xb1'
p68
I108
sS'2'
p69
I20
sS'6'
p70
I24
sS':'
p71
I28
sS'>'
p72
I32
sS'B'
p73
I35
sS'F'
p74
I39
sS'J'
p75
I43
sS'N'
p76
I47
sS'R'
p77
I51
sS'V'
p78
I55
sS'Z'
p79
I59
sS'b'
p80
I65
sS'f'
p81
I69
sS'j'
p82
I73
sS'n'
p83
I77
sS'r'
p84
I81
sS'v'
p85
I85
sS'z'
p86
I89
sS'~'
p87
I90
sS'\x82'
p88
I93
sS'\x86'
p89
I94
sS'\t'
p90
I0
sS'\x96'
p91
I98
sS'!'
p92
I3
sS'%'
p93
I7
sS')'
p94
I11
sS'-'
p95
I15
sS'\xae'
p96
I106
sS'1'
p97
I19
sS'5'
p98
I23
sS'9'
p99
I27
sS'='
p100
I31
sS'A'
p101
I34
sS'\xc2'
p102
I111
sS'E'
p103
I38
sS'I'
p104
I42
sS'M'
p105
I46
sS'Q'
p106
I50
sS'U'
p107
I54
sS'Y'
p108
I58
sS']'
p109
I61
sS'a'
p110
I64
sS'\xe2'
p111
I115
sS'e'
p112
I68
sS'i'
p113
I72
sS'm'
p114
I76
sS'q'
p115
I80
sS'u'
p116
I84
sS'y'
p117
I88
s.